; Function Attrs: nounwind uwtable
define hidden void @zif_connection_aborted(ptr nocapture noundef readonly %0, ptr nocapture noundef writeonly %1) #0 {
  %3 = getelementptr inbounds i8, ptr %0, i64 44
  %4 = load i32, ptr %3, align 4
  %.not = icmp eq i32 %4, 0
  br i1 %.not, label %6, label %5

5:                                                ; preds = %2
  tail call void @zend_wrong_parameters_none_error() #18
  br label %11

6:                                                ; preds = %2
  %7 = load i16, ptr getelementptr inbounds (%struct._php_core_globals, ptr @core_globals, i64 0, i32 35), align 8
  %8 = and i16 %7, 1
  %9 = zext nneg i16 %8 to i64
  store i64 %9, ptr %1, align 8
  %10 = getelementptr inbounds i8, ptr %1, i64 8
  store i32 4, ptr %10, align 8
  br label %11

11:                                               ; preds = %6, %5
  ret void
}